target datalayout = "e-m:e-p270:32:32-p271:32:32-p272:64:64-i64:64-i128:128-f80:128-n8:16:32:64-S128"
target triple = "x86_64-pc-linux-gnu"

%struct.XXH32_state_s = type { i32, i32, [4 x i32], [4 x i32], i32, i32 }

; Function Attrs: mustprogress nounwind uwtable
define internal noundef i32 @_ZL10XXH_read32PKv(ptr noundef %0) #4 {
  %2 = alloca ptr, align 8
  store ptr %0, ptr %2, align 8, !tbaa !4
  %3 = load ptr, ptr %2, align 8, !tbaa !4
  %4 = load i32, ptr %3, align 1, !tbaa !10
  ret i32 %4
}

; Function Attrs: alwaysinline mustprogress uwtable
define internal noundef i32 @_ZL12XXH_readLE32PKv(ptr noundef %0) #7 {
  %2 = alloca ptr, align 8
  store ptr %0, ptr %2, align 8, !tbaa !4
  %3 = load ptr, ptr %2, align 8, !tbaa !4
  %4 = call noundef i32 @_ZL10XXH_read32PKv(ptr noundef %3)
  ret i32 %4
}

; Function Attrs: mustprogress nounwind uwtable
define internal noundef i32 @_ZL15XXH32_avalanchej(i32 noundef %0) #4 {
  %2 = alloca i32, align 4
  store i32 %0, ptr %2, align 4, !tbaa !10
  %3 = load i32, ptr %2, align 4, !tbaa !10
  %4 = lshr i32 %3, 15
  %5 = load i32, ptr %2, align 4, !tbaa !10
  %6 = xor i32 %5, %4
  store i32 %6, ptr %2, align 4, !tbaa !10
  %7 = load i32, ptr %2, align 4, !tbaa !10
  %8 = mul i32 %7, -2048144777
  store i32 %8, ptr %2, align 4, !tbaa !10
  %9 = load i32, ptr %2, align 4, !tbaa !10
  %10 = lshr i32 %9, 13
  %11 = load i32, ptr %2, align 4, !tbaa !10
  %12 = xor i32 %11, %10
  store i32 %12, ptr %2, align 4, !tbaa !10
  %13 = load i32, ptr %2, align 4, !tbaa !10
  %14 = mul i32 %13, -1028477379
  store i32 %14, ptr %2, align 4, !tbaa !10
  %15 = load i32, ptr %2, align 4, !tbaa !10
  %16 = lshr i32 %15, 16
  %17 = load i32, ptr %2, align 4, !tbaa !10
  %18 = xor i32 %17, %16
  store i32 %18, ptr %2, align 4, !tbaa !10
  %19 = load i32, ptr %2, align 4, !tbaa !10
  ret i32 %19
}

; Function Attrs: alwaysinline mustprogress uwtable
define internal noundef i32 @_ZL18XXH_readLE32_alignPKv13XXH_alignment(ptr noundef %0, i32 noundef %1) #7 {
  %3 = alloca i32, align 4
  %4 = alloca ptr, align 8
  %5 = alloca i32, align 4
  store ptr %0, ptr %4, align 8, !tbaa !4
  store i32 %1, ptr %5, align 4, !tbaa !14
  %6 = load i32, ptr %5, align 4, !tbaa !14
  %7 = icmp eq i32 %6, 1
  br i1 %7, label %8, label %11

8:                                                ; preds = %2
  %9 = load ptr, ptr %4, align 8, !tbaa !4
  %10 = call noundef i32 @_ZL12XXH_readLE32PKv(ptr noundef %9)
  store i32 %10, ptr %3, align 4
  br label %14

11:                                               ; preds = %2
  %12 = load ptr, ptr %4, align 8, !tbaa !4
  %13 = load i32, ptr %12, align 4, !tbaa !10
  store i32 %13, ptr %3, align 4
  br label %14

14:                                               ; preds = %11, %8
  %15 = load i32, ptr %3, align 4
  ret i32 %15
}

; Function Attrs: mustprogress nounwind willreturn memory(read) uwtable
define internal noundef i32 @_ZL14XXH32_finalizejPKhm13XXH_alignment(i32 noundef %0, ptr noundef %1, i64 noundef %2, i32 noundef %3) #1 {
  %5 = alloca i32, align 4
  %6 = alloca ptr, align 8
  %7 = alloca i64, align 8
  %8 = alloca i32, align 4
  store i32 %0, ptr %5, align 4, !tbaa !10
  store ptr %1, ptr %6, align 8, !tbaa !12
  store i64 %2, ptr %7, align 8, !tbaa !8
  store i32 %3, ptr %8, align 4, !tbaa !14
  %9 = load ptr, ptr %6, align 8, !tbaa !12
  %10 = icmp eq ptr %9, null
  br i1 %10, label %11, label %16

11:                                               ; preds = %4
  %12 = load i64, ptr %7, align 8, !tbaa !8
  %13 = icmp eq i64 %12, 0
  br i1 %13, label %15, label %14

14:                                               ; preds = %11
  unreachable

15:                                               ; preds = %11
  br label %16

16:                                               ; preds = %15, %4
  %17 = load i64, ptr %7, align 8, !tbaa !8
  %18 = and i64 %17, 15
  store i64 %18, ptr %7, align 8, !tbaa !8
  br label %19

19:                                               ; preds = %35, %16
  %20 = load i64, ptr %7, align 8, !tbaa !8
  %21 = icmp uge i64 %20, 4
  br i1 %21, label %22, label %38

22:                                               ; preds = %19
  br label %23

23:                                               ; preds = %22
  %24 = load ptr, ptr %6, align 8, !tbaa !12
  %25 = load i32, ptr %8, align 4, !tbaa !14
  %26 = call noundef i32 @_ZL18XXH_readLE32_alignPKv13XXH_alignment(ptr noundef %24, i32 noundef %25)
  %27 = mul i32 %26, -1028477379
  %28 = load i32, ptr %5, align 4, !tbaa !10
  %29 = add i32 %28, %27
  store i32 %29, ptr %5, align 4, !tbaa !10
  %30 = load ptr, ptr %6, align 8, !tbaa !12
  %31 = getelementptr inbounds i8, ptr %30, i64 4
  store ptr %31, ptr %6, align 8, !tbaa !12
  %32 = load i32, ptr %5, align 4, !tbaa !10
  %33 = call i32 @llvm.fshl.i32(i32 %32, i32 %32, i32 17)
  %34 = mul i32 %33, 668265263
  store i32 %34, ptr %5, align 4, !tbaa !10
  br label %35

35:                                               ; preds = %23
  %36 = load i64, ptr %7, align 8, !tbaa !8
  %37 = sub i64 %36, 4
  store i64 %37, ptr %7, align 8, !tbaa !8
  br label %19, !llvm.loop !28

38:                                               ; preds = %19
  br label %39

39:                                               ; preds = %54, %38
  %40 = load i64, ptr %7, align 8, !tbaa !8
  %41 = icmp ugt i64 %40, 0
  br i1 %41, label %42, label %57

42:                                               ; preds = %39
  br label %43

43:                                               ; preds = %42
  %44 = load ptr, ptr %6, align 8, !tbaa !12
  %45 = getelementptr inbounds nuw i8, ptr %44, i32 1
  store ptr %45, ptr %6, align 8, !tbaa !12
  %46 = load i8, ptr %44, align 1, !tbaa !29
  %47 = zext i8 %46 to i32
  %48 = mul i32 %47, 374761393
  %49 = load i32, ptr %5, align 4, !tbaa !10
  %50 = add i32 %49, %48
  store i32 %50, ptr %5, align 4, !tbaa !10
  %51 = load i32, ptr %5, align 4, !tbaa !10
  %52 = call i32 @llvm.fshl.i32(i32 %51, i32 %51, i32 11)
  %53 = mul i32 %52, -1640531535
  store i32 %53, ptr %5, align 4, !tbaa !10
  br label %54

54:                                               ; preds = %43
  %55 = load i64, ptr %7, align 8, !tbaa !8
  %56 = add i64 %55, -1
  store i64 %56, ptr %7, align 8, !tbaa !8
  br label %39, !llvm.loop !30

57:                                               ; preds = %39
  %58 = load i32, ptr %5, align 4, !tbaa !10
  %59 = call noundef i32 @_ZL15XXH32_avalanchej(i32 noundef %58)
  ret i32 %59
}

; Function Attrs: mustprogress nounwind willreturn memory(read) uwtable
define i32 @ROCKSDB_XXH32_digest(ptr noundef %0) #1 {
  %2 = alloca ptr, align 8
  %3 = alloca i32, align 4
  store ptr %0, ptr %2, align 8, !tbaa !18
  call void @llvm.lifetime.start.p0(i64 4, ptr %3) #22
  %4 = load ptr, ptr %2, align 8, !tbaa !18
  %5 = getelementptr inbounds nuw %struct.XXH32_state_s, ptr %4, i32 0, i32 1
  %6 = load i32, ptr %5, align 4, !tbaa !22
  %7 = icmp ne i32 %6, 0
  br i1 %7, label %8, label %32

8:                                                ; preds = %1
  %9 = load ptr, ptr %2, align 8, !tbaa !18
  %10 = getelementptr inbounds nuw %struct.XXH32_state_s, ptr %9, i32 0, i32 2
  %11 = getelementptr inbounds [4 x i32], ptr %10, i64 0, i64 0
  %12 = load i32, ptr %11, align 4, !tbaa !10
  %13 = call i32 @llvm.fshl.i32(i32 %12, i32 %12, i32 1)
  %14 = load ptr, ptr %2, align 8, !tbaa !18
  %15 = getelementptr inbounds nuw %struct.XXH32_state_s, ptr %14, i32 0, i32 2
  %16 = getelementptr inbounds [4 x i32], ptr %15, i64 0, i64 1
  %17 = load i32, ptr %16, align 4, !tbaa !10
  %18 = call i32 @llvm.fshl.i32(i32 %17, i32 %17, i32 7)
  %19 = add i32 %13, %18
  %20 = load ptr, ptr %2, align 8, !tbaa !18
  %21 = getelementptr inbounds nuw %struct.XXH32_state_s, ptr %20, i32 0, i32 2
  %22 = getelementptr inbounds [4 x i32], ptr %21, i64 0, i64 2
  %23 = load i32, ptr %22, align 4, !tbaa !10
  %24 = call i32 @llvm.fshl.i32(i32 %23, i32 %23, i32 12)
  %25 = add i32 %19, %24
  %26 = load ptr, ptr %2, align 8, !tbaa !18
  %27 = getelementptr inbounds nuw %struct.XXH32_state_s, ptr %26, i32 0, i32 2
  %28 = getelementptr inbounds [4 x i32], ptr %27, i64 0, i64 3
  %29 = load i32, ptr %28, align 4, !tbaa !10
  %30 = call i32 @llvm.fshl.i32(i32 %29, i32 %29, i32 18)
  %31 = add i32 %25, %30
  store i32 %31, ptr %3, align 4, !tbaa !10
  br label %38

32:                                               ; preds = %1
  %33 = load ptr, ptr %2, align 8, !tbaa !18
  %34 = getelementptr inbounds nuw %struct.XXH32_state_s, ptr %33, i32 0, i32 2
  %35 = getelementptr inbounds [4 x i32], ptr %34, i64 0, i64 2
  %36 = load i32, ptr %35, align 4, !tbaa !10
  %37 = add i32 %36, 374761393
  store i32 %37, ptr %3, align 4, !tbaa !10
  br label %38

38:                                               ; preds = %32, %8
  %39 = load ptr, ptr %2, align 8, !tbaa !18
  %40 = getelementptr inbounds nuw %struct.XXH32_state_s, ptr %39, i32 0, i32 0
  %41 = load i32, ptr %40, align 4, !tbaa !20
  %42 = load i32, ptr %3, align 4, !tbaa !10
  %43 = add i32 %42, %41
  store i32 %43, ptr %3, align 4, !tbaa !10
  %44 = load i32, ptr %3, align 4, !tbaa !10
  %45 = load ptr, ptr %2, align 8, !tbaa !18
  %46 = getelementptr inbounds nuw %struct.XXH32_state_s, ptr %45, i32 0, i32 3
  %47 = getelementptr inbounds [4 x i32], ptr %46, i64 0, i64 0
  %48 = load ptr, ptr %2, align 8, !tbaa !18
  %49 = getelementptr inbounds nuw %struct.XXH32_state_s, ptr %48, i32 0, i32 4
  %50 = load i32, ptr %49, align 4, !tbaa !23
  %51 = zext i32 %50 to i64
  %52 = call noundef i32 @_ZL14XXH32_finalizejPKhm13XXH_alignment(i32 noundef %44, ptr noundef %47, i64 noundef %51, i32 noundef 0) #21
  call void @llvm.lifetime.end.p0(i64 4, ptr %3) #22
  ret i32 %52
}