; Function Attrs: mustprogress nofree norecurse nosync nounwind willreturn memory(argmem: read) uwtable
define i32 @ROCKSDB_XXH32_digest(ptr noundef readonly captures(none) %0) local_unnamed_addr #9 {
  %2 = getelementptr inbounds nuw i8, ptr %0, i64 4
  %3 = load i32, ptr %2, align 4, !tbaa !16
  %.not = icmp eq i32 %3, 0
  br i1 %.not, label %20, label %4

4:                                                ; preds = %1
  %5 = getelementptr inbounds nuw i8, ptr %0, i64 8
  %6 = load i32, ptr %5, align 4, !tbaa !4
  %7 = tail call i32 @llvm.fshl.i32(i32 %6, i32 %6, i32 1)
  %8 = getelementptr inbounds nuw i8, ptr %0, i64 12
  %9 = load i32, ptr %8, align 4, !tbaa !4
  %10 = tail call i32 @llvm.fshl.i32(i32 %9, i32 %9, i32 7)
  %11 = add i32 %10, %7
  %12 = getelementptr inbounds nuw i8, ptr %0, i64 16
  %13 = load i32, ptr %12, align 4, !tbaa !4
  %14 = tail call i32 @llvm.fshl.i32(i32 %13, i32 %13, i32 12)
  %15 = add i32 %11, %14
  %16 = getelementptr inbounds nuw i8, ptr %0, i64 20
  %17 = load i32, ptr %16, align 4, !tbaa !4
  %18 = tail call i32 @llvm.fshl.i32(i32 %17, i32 %17, i32 18)
  %19 = add i32 %15, %18
  br label %24

20:                                               ; preds = %1
  %21 = getelementptr inbounds nuw i8, ptr %0, i64 16
  %22 = load i32, ptr %21, align 4, !tbaa !4
  %23 = add i32 %22, 374761393
  br label %24

24:                                               ; preds = %20, %4
  %.0 = phi i32 [ %19, %4 ], [ %23, %20 ]
  %25 = load i32, ptr %0, align 4, !tbaa !14
  %26 = add i32 %25, %.0
  %27 = getelementptr inbounds nuw i8, ptr %0, i64 24
  %28 = getelementptr inbounds nuw i8, ptr %0, i64 40
  %29 = load i32, ptr %28, align 4, !tbaa !17
  %30 = and i32 %29, 15
  %31 = zext nneg i32 %30 to i64
  %32 = icmp samesign ugt i32 %30, 3
  br i1 %32, label %_ZL18XXH_readLE32_alignPKv13XXH_alignment.exit.i, label %.preheader.i

.preheader.i:                                     ; preds = %_ZL18XXH_readLE32_alignPKv13XXH_alignment.exit.i, %24
  %.017.lcssa.i = phi ptr [ %27, %24 ], [ %35, %_ZL18XXH_readLE32_alignPKv13XXH_alignment.exit.i ]
  %.015.lcssa.i = phi i64 [ %31, %24 ], [ %38, %_ZL18XXH_readLE32_alignPKv13XXH_alignment.exit.i ]
  %.0.lcssa.i = phi i32 [ %26, %24 ], [ %37, %_ZL18XXH_readLE32_alignPKv13XXH_alignment.exit.i ]
  %.not24.i = icmp eq i64 %.015.lcssa.i, 0
  br i1 %.not24.i, label %_ZL14XXH32_finalizejPKhm13XXH_alignment.exit, label %.lr.ph.i

_ZL18XXH_readLE32_alignPKv13XXH_alignment.exit.i: ; preds = %24, %_ZL18XXH_readLE32_alignPKv13XXH_alignment.exit.i
  %.021.i = phi i32 [ %37, %_ZL18XXH_readLE32_alignPKv13XXH_alignment.exit.i ], [ %26, %24 ]
  %.01520.i = phi i64 [ %38, %_ZL18XXH_readLE32_alignPKv13XXH_alignment.exit.i ], [ %31, %24 ]
  %.01719.i = phi ptr [ %35, %_ZL18XXH_readLE32_alignPKv13XXH_alignment.exit.i ], [ %27, %24 ]
  %.0.i.i = load i32, ptr %.01719.i, align 1, !tbaa !4
  %33 = mul i32 %.0.i.i, -1028477379
  %34 = add i32 %33, %.021.i
  %35 = getelementptr inbounds nuw i8, ptr %.01719.i, i64 4
  %36 = tail call i32 @llvm.fshl.i32(i32 %34, i32 %34, i32 17)
  %37 = mul i32 %36, 668265263
  %38 = add nsw i64 %.01520.i, -4
  %39 = icmp ugt i64 %38, 3
  br i1 %39, label %_ZL18XXH_readLE32_alignPKv13XXH_alignment.exit.i, label %.preheader.i, !llvm.loop !11

.lr.ph.i:                                         ; preds = %.preheader.i, %.lr.ph.i
  %.127.i = phi i32 [ %46, %.lr.ph.i ], [ %.0.lcssa.i, %.preheader.i ]
  %.11626.i = phi i64 [ %47, %.lr.ph.i ], [ %.015.lcssa.i, %.preheader.i ]
  %.11825.i = phi ptr [ %40, %.lr.ph.i ], [ %.017.lcssa.i, %.preheader.i ]
  %40 = getelementptr inbounds nuw i8, ptr %.11825.i, i64 1
  %41 = load i8, ptr %.11825.i, align 1, !tbaa !12
  %42 = zext i8 %41 to i32
  %43 = mul i32 %42, 374761393
  %44 = add i32 %43, %.127.i
  %45 = tail call i32 @llvm.fshl.i32(i32 %44, i32 %44, i32 11)
  %46 = mul i32 %45, -1640531535
  %47 = add nsw i64 %.11626.i, -1
  %.not.i = icmp eq i64 %47, 0
  br i1 %.not.i, label %_ZL14XXH32_finalizejPKhm13XXH_alignment.exit, label %.lr.ph.i, !llvm.loop !13

_ZL14XXH32_finalizejPKhm13XXH_alignment.exit:     ; preds = %.lr.ph.i, %.preheader.i
  %.1.lcssa.i = phi i32 [ %.0.lcssa.i, %.preheader.i ], [ %46, %.lr.ph.i ]
  %48 = lshr i32 %.1.lcssa.i, 15
  %49 = xor i32 %48, %.1.lcssa.i
  %50 = mul i32 %49, -2048144777
  %51 = lshr i32 %50, 13
  %52 = xor i32 %51, %50
  %53 = mul i32 %52, -1028477379
  %54 = lshr i32 %53, 16
  %55 = xor i32 %54, %53
  ret i32 %55
}